target datalayout = "e-m:e-p270:32:32-p271:32:32-p272:64:64-i64:64-i128:128-f80:128-n8:16:32:64-S128"
target triple = "x86_64-pc-linux-gnu"

@noise_table = internal global [4116 x float] zeroinitializer, align 16
@random_dequant_index = internal global [256 x [5 x i8]] zeroinitializer, align 16
@random_dequant_type24 = internal global [128 x [3 x i8]] zeroinitializer, align 16

; Function Attrs: cold nounwind optsize uwtable
define internal void @rnd_table_init() #0 {
  %1 = alloca i32, align 4
  %2 = alloca i32, align 4
  %3 = alloca i32, align 4
  %4 = alloca i64, align 8
  %5 = alloca float, align 4
  call void @llvm.lifetime.start.p0(i64 4, ptr %1) #13
  call void @llvm.lifetime.start.p0(i64 4, ptr %2) #13
  call void @llvm.lifetime.start.p0(i64 4, ptr %3) #13
  call void @llvm.lifetime.start.p0(i64 8, ptr %4) #13
  store i64 0, ptr %4, align 8, !tbaa !79
  call void @llvm.lifetime.start.p0(i64 4, ptr %5) #13
  store float 0x3F10000000000000, ptr %5, align 4, !tbaa !31
  store i32 0, ptr %1, align 4, !tbaa !36
  br label %6

6:                                                ; preds = %27, %0
  %7 = load i32, ptr %1, align 4, !tbaa !36
  %8 = icmp slt i32 %7, 4096
  br i1 %8, label %9, label %30

9:                                                ; preds = %6
  %10 = load i64, ptr %4, align 8, !tbaa !79
  %11 = mul i64 %10, 214013
  %12 = add i64 %11, 2531011
  store i64 %12, ptr %4, align 8, !tbaa !79
  %13 = load float, ptr %5, align 4, !tbaa !31
  %14 = load i64, ptr %4, align 8, !tbaa !79
  %15 = trunc i64 %14 to i32
  %16 = ashr i32 %15, 16
  %17 = and i32 %16, 32767
  %18 = sitofp i32 %17 to float
  %19 = fmul nsz float %13, %18
  %20 = fpext nsz float %19 to double
  %21 = fsub nsz double %20, 1.000000e+00
  %22 = fmul nsz double %21, 1.300000e+00
  %23 = fptrunc nsz double %22 to float
  %24 = load i32, ptr %1, align 4, !tbaa !36
  %25 = sext i32 %24 to i64
  %26 = getelementptr inbounds [4116 x float], ptr @noise_table, i64 0, i64 %25
  store float %23, ptr %26, align 4, !tbaa !31
  br label %27

27:                                               ; preds = %9
  %28 = load i32, ptr %1, align 4, !tbaa !36
  %29 = add nsw i32 %28, 1
  store i32 %29, ptr %1, align 4, !tbaa !36
  br label %6, !llvm.loop !87

30:                                               ; preds = %6
  store i32 0, ptr %1, align 4, !tbaa !36
  br label %31

31:                                               ; preds = %62, %30
  %32 = load i32, ptr %1, align 4, !tbaa !36
  %33 = icmp slt i32 %32, 256
  br i1 %33, label %34, label %65

34:                                               ; preds = %31
  store i64 81, ptr %4, align 8, !tbaa !79
  %35 = load i32, ptr %1, align 4, !tbaa !36
  store i32 %35, ptr %3, align 4, !tbaa !36
  store i32 0, ptr %2, align 4, !tbaa !36
  br label %36

36:                                               ; preds = %58, %34
  %37 = load i32, ptr %2, align 4, !tbaa !36
  %38 = icmp slt i32 %37, 5
  br i1 %38, label %39, label %61

39:                                               ; preds = %36
  %40 = load i32, ptr %3, align 4, !tbaa !36
  %41 = zext i32 %40 to i64
  %42 = load i64, ptr %4, align 8, !tbaa !79
  %43 = udiv i64 %41, %42
  %44 = trunc i64 %43 to i8
  %45 = load i32, ptr %1, align 4, !tbaa !36
  %46 = sext i32 %45 to i64
  %47 = getelementptr inbounds [256 x [5 x i8]], ptr @random_dequant_index, i64 0, i64 %46
  %48 = load i32, ptr %2, align 4, !tbaa !36
  %49 = sext i32 %48 to i64
  %50 = getelementptr inbounds [5 x i8], ptr %47, i64 0, i64 %49
  store i8 %44, ptr %50, align 1, !tbaa !78
  %51 = load i64, ptr %4, align 8, !tbaa !79
  %52 = load i32, ptr %3, align 4, !tbaa !36
  %53 = zext i32 %52 to i64
  %54 = urem i64 %53, %51
  %55 = trunc i64 %54 to i32
  store i32 %55, ptr %3, align 4, !tbaa !36
  %56 = load i64, ptr %4, align 8, !tbaa !79
  %57 = udiv i64 %56, 3
  store i64 %57, ptr %4, align 8, !tbaa !79
  br label %58

58:                                               ; preds = %39
  %59 = load i32, ptr %2, align 4, !tbaa !36
  %60 = add nsw i32 %59, 1
  store i32 %60, ptr %2, align 4, !tbaa !36
  br label %36, !llvm.loop !88

61:                                               ; preds = %36
  br label %62

62:                                               ; preds = %61
  %63 = load i32, ptr %1, align 4, !tbaa !36
  %64 = add nsw i32 %63, 1
  store i32 %64, ptr %1, align 4, !tbaa !36
  br label %31, !llvm.loop !89

65:                                               ; preds = %31
  store i32 0, ptr %1, align 4, !tbaa !36
  br label %66

66:                                               ; preds = %97, %65
  %67 = load i32, ptr %1, align 4, !tbaa !36
  %68 = icmp slt i32 %67, 128
  br i1 %68, label %69, label %100

69:                                               ; preds = %66
  store i64 25, ptr %4, align 8, !tbaa !79
  %70 = load i32, ptr %1, align 4, !tbaa !36
  store i32 %70, ptr %3, align 4, !tbaa !36
  store i32 0, ptr %2, align 4, !tbaa !36
  br label %71

71:                                               ; preds = %93, %69
  %72 = load i32, ptr %2, align 4, !tbaa !36
  %73 = icmp slt i32 %72, 3
  br i1 %73, label %74, label %96

74:                                               ; preds = %71
  %75 = load i32, ptr %3, align 4, !tbaa !36
  %76 = zext i32 %75 to i64
  %77 = load i64, ptr %4, align 8, !tbaa !79
  %78 = udiv i64 %76, %77
  %79 = trunc i64 %78 to i8
  %80 = load i32, ptr %1, align 4, !tbaa !36
  %81 = sext i32 %80 to i64
  %82 = getelementptr inbounds [128 x [3 x i8]], ptr @random_dequant_type24, i64 0, i64 %81
  %83 = load i32, ptr %2, align 4, !tbaa !36
  %84 = sext i32 %83 to i64
  %85 = getelementptr inbounds [3 x i8], ptr %82, i64 0, i64 %84
  store i8 %79, ptr %85, align 1, !tbaa !78
  %86 = load i64, ptr %4, align 8, !tbaa !79
  %87 = load i32, ptr %3, align 4, !tbaa !36
  %88 = zext i32 %87 to i64
  %89 = urem i64 %88, %86
  %90 = trunc i64 %89 to i32
  store i32 %90, ptr %3, align 4, !tbaa !36
  %91 = load i64, ptr %4, align 8, !tbaa !79
  %92 = udiv i64 %91, 5
  store i64 %92, ptr %4, align 8, !tbaa !79
  br label %93

93:                                               ; preds = %74
  %94 = load i32, ptr %2, align 4, !tbaa !36
  %95 = add nsw i32 %94, 1
  store i32 %95, ptr %2, align 4, !tbaa !36
  br label %71, !llvm.loop !90

96:                                               ; preds = %71
  br label %97

97:                                               ; preds = %96
  %98 = load i32, ptr %1, align 4, !tbaa !36
  %99 = add nsw i32 %98, 1
  store i32 %99, ptr %1, align 4, !tbaa !36
  br label %66, !llvm.loop !91

100:                                              ; preds = %66
  call void @llvm.lifetime.end.p0(i64 4, ptr %5) #13
  call void @llvm.lifetime.end.p0(i64 8, ptr %4) #13
  call void @llvm.lifetime.end.p0(i64 4, ptr %3) #13
  call void @llvm.lifetime.end.p0(i64 4, ptr %2) #13
  call void @llvm.lifetime.end.p0(i64 4, ptr %1) #13
  ret void
}