; Function Attrs: cold nofree norecurse nosync nounwind optsize memory(write, argmem: none, inaccessiblemem: none) uwtable
define internal fastcc void @rnd_table_init() unnamed_addr #4 {
  br label %1

1:                                                ; preds = %0, %1
  %indvars.iv = phi i64 [ 0, %0 ], [ %indvars.iv.next, %1 ]
  %.02939 = phi i32 [ 0, %0 ], [ %3, %1 ]
  %2 = mul i32 %.02939, 214013
  %3 = add i32 %2, 2531011
  %4 = lshr i32 %3, 16
  %5 = and i32 %4, 32767
  %6 = uitofp nneg i32 %5 to float
  %7 = fmul nsz float %6, 0x3F10000000000000
  %8 = fpext nsz float %7 to double
  %9 = fadd nsz double %8, -1.000000e+00
  %10 = fmul nsz double %9, 1.300000e+00
  %11 = fptrunc nsz double %10 to float
  %12 = getelementptr inbounds nuw [4116 x float], ptr @noise_table, i64 0, i64 %indvars.iv
  store float %11, ptr %12, align 4, !tbaa !27
  %indvars.iv.next = add nuw nsw i64 %indvars.iv, 1
  %exitcond.not = icmp eq i64 %indvars.iv.next, 4096
  br i1 %exitcond.not, label %.preheader37, label %1, !llvm.loop !172

.preheader37:                                     ; preds = %1, %20
  %indvars.iv54 = phi i64 [ %indvars.iv.next55, %20 ], [ 0, %1 ]
  br label %13

13:                                               ; preds = %.preheader37, %13
  %indvars.iv50 = phi i64 [ 0, %.preheader37 ], [ %indvars.iv.next51, %13 ]
  %.13043 = phi i64 [ 81, %.preheader37 ], [ %19, %13 ]
  %.03242.in = phi i64 [ %indvars.iv54, %.preheader37 ], [ %18, %13 ]
  %14 = and i64 %.03242.in, 4294967295
  %15 = udiv i64 %14, %.13043
  %16 = trunc i64 %15 to i8
  %17 = getelementptr inbounds nuw [256 x [5 x i8]], ptr @random_dequant_index, i64 0, i64 %indvars.iv54, i64 %indvars.iv50
  store i8 %16, ptr %17, align 1, !tbaa !30
  %18 = urem i64 %14, %.13043
  %19 = udiv i64 %.13043, 3
  %indvars.iv.next51 = add nuw nsw i64 %indvars.iv50, 1
  %exitcond53.not = icmp eq i64 %indvars.iv.next51, 5
  br i1 %exitcond53.not, label %20, label %13, !llvm.loop !173

20:                                               ; preds = %13
  %indvars.iv.next55 = add nuw nsw i64 %indvars.iv54, 1
  %exitcond57.not = icmp eq i64 %indvars.iv.next55, 256
  br i1 %exitcond57.not, label %.preheader, label %.preheader37, !llvm.loop !174

.preheader:                                       ; preds = %20, %28
  %indvars.iv62 = phi i64 [ %indvars.iv.next63, %28 ], [ 0, %20 ]
  br label %21

21:                                               ; preds = %.preheader, %21
  %indvars.iv58 = phi i64 [ 0, %.preheader ], [ %indvars.iv.next59, %21 ]
  %.23147 = phi i64 [ 25, %.preheader ], [ %27, %21 ]
  %.13346.in = phi i64 [ %indvars.iv62, %.preheader ], [ %26, %21 ]
  %22 = and i64 %.13346.in, 4294967295
  %23 = udiv i64 %22, %.23147
  %24 = trunc i64 %23 to i8
  %25 = getelementptr inbounds nuw [128 x [3 x i8]], ptr @random_dequant_type24, i64 0, i64 %indvars.iv62, i64 %indvars.iv58
  store i8 %24, ptr %25, align 1, !tbaa !30
  %26 = urem i64 %22, %.23147
  %27 = udiv i64 %.23147, 5
  %indvars.iv.next59 = add nuw nsw i64 %indvars.iv58, 1
  %exitcond61.not = icmp eq i64 %indvars.iv.next59, 3
  br i1 %exitcond61.not, label %28, label %21, !llvm.loop !175

28:                                               ; preds = %21
  %indvars.iv.next63 = add nuw nsw i64 %indvars.iv62, 1
  %exitcond65.not = icmp eq i64 %indvars.iv.next63, 128
  br i1 %exitcond65.not, label %29, label %.preheader, !llvm.loop !176

29:                                               ; preds = %28
  ret void
}